; Function Attrs: mustprogress nofree norecurse nosync nounwind willreturn memory(argmem: readwrite) uwtable
define dso_local void @_ZN4base8internal10JSONParser13StringBuilder4SwapEPS2_(ptr nocapture noundef nonnull align 8 dereferenceable(24) %this, ptr nocapture noundef %other) local_unnamed_addr #6 align 2 {
entry:
  %string_ = getelementptr inbounds i8, ptr %other, i64 16
  %string_2 = getelementptr inbounds i8, ptr %this, i64 16
  %0 = load ptr, ptr %string_, align 8
  %1 = load ptr, ptr %string_2, align 8
  store ptr %1, ptr %string_, align 8
  store ptr %0, ptr %string_2, align 8
  %2 = load ptr, ptr %other, align 8
  %3 = load ptr, ptr %this, align 8
  store ptr %3, ptr %other, align 8
  store ptr %2, ptr %this, align 8
  %length_ = getelementptr inbounds i8, ptr %other, i64 8
  %length_4 = getelementptr inbounds i8, ptr %this, i64 8
  %4 = load i64, ptr %length_, align 8
  %5 = load i64, ptr %length_4, align 8
  store i64 %5, ptr %length_, align 8
  store i64 %4, ptr %length_4, align 8
  ret void
}